target datalayout = "e-m:e-p270:32:32-p271:32:32-p272:64:64-i64:64-i128:128-f80:128-n8:16:32:64-S128"
target triple = "x86_64-pc-linux-gnu"

%struct.Abc_Ntk_t_ = type { i32, i32, ptr, ptr, ptr, ptr, ptr, ptr, ptr, ptr, ptr, ptr, ptr, [11 x i32], i32, i32, i32, i32, ptr, i32, ptr, ptr, i32, i32, i32, double, i32, %struct.Vec_Int_t_, ptr, ptr, ptr, ptr, ptr, float, i32, ptr, ptr, ptr, ptr, ptr, ptr, ptr, ptr, ptr, ptr, ptr, ptr, ptr, ptr, ptr, ptr, ptr, ptr, ptr, ptr, ptr, ptr }
%struct.Vec_Int_t_ = type { i32, i32, ptr }
%struct.Abc_Obj_t_ = type { ptr, ptr, i32, i32, %struct.Vec_Int_t_, %struct.Vec_Int_t_, %union.anon, %union.anon.0 }
%union.anon = type { ptr }
%union.anon.0 = type { ptr }
%struct.Vec_Ptr_t_ = type { i32, i32, ptr }

; Function Attrs: inlinehint nounwind uwtable
define internal i32 @Abc_ObjFaninC1(ptr noundef %0) #2 {
  %2 = alloca ptr, align 8
  store ptr %0, ptr %2, align 8, !tbaa !42
  %3 = load ptr, ptr %2, align 8, !tbaa !42
  %4 = getelementptr inbounds nuw %struct.Abc_Obj_t_, ptr %3, i32 0, i32 3
  %5 = load i32, ptr %4, align 4
  %6 = lshr i32 %5, 11
  %7 = and i32 %6, 1
  ret i32 %7
}

; Function Attrs: inlinehint nounwind uwtable
define internal ptr @Abc_ObjNotCond(ptr noundef %0, i32 noundef %1) #2 {
  %3 = alloca ptr, align 8
  %4 = alloca i32, align 4
  store ptr %0, ptr %3, align 8, !tbaa !42
  store i32 %1, ptr %4, align 4, !tbaa !8
  %5 = load ptr, ptr %3, align 8, !tbaa !42
  %6 = ptrtoint ptr %5 to i64
  %7 = load i32, ptr %4, align 4, !tbaa !8
  %8 = icmp ne i32 %7, 0
  %9 = zext i1 %8 to i32
  %10 = sext i32 %9 to i64
  %11 = xor i64 %6, %10
  %12 = inttoptr i64 %11 to ptr
  ret ptr %12
}

; Function Attrs: inlinehint nounwind uwtable
define internal i32 @Abc_ObjFaninC0(ptr noundef %0) #2 {
  %2 = alloca ptr, align 8
  store ptr %0, ptr %2, align 8, !tbaa !42
  %3 = load ptr, ptr %2, align 8, !tbaa !42
  %4 = getelementptr inbounds nuw %struct.Abc_Obj_t_, ptr %3, i32 0, i32 3
  %5 = load i32, ptr %4, align 4
  %6 = lshr i32 %5, 10
  %7 = and i32 %6, 1
  ret i32 %7
}

; Function Attrs: inlinehint nounwind uwtable
define internal ptr @Abc_ObjChild0(ptr noundef %0) #2 {
  %2 = alloca ptr, align 8
  store ptr %0, ptr %2, align 8, !tbaa !42
  %3 = load ptr, ptr %2, align 8, !tbaa !42
  %4 = call ptr @Abc_ObjFanin0(ptr noundef %3)
  %5 = load ptr, ptr %2, align 8, !tbaa !42
  %6 = call i32 @Abc_ObjFaninC0(ptr noundef %5)
  %7 = call ptr @Abc_ObjNotCond(ptr noundef %4, i32 noundef %6)
  ret ptr %7
}

; Function Attrs: inlinehint nounwind uwtable
define internal ptr @Abc_ObjFanin1(ptr noundef %0) #2 {
  %2 = alloca ptr, align 8
  store ptr %0, ptr %2, align 8, !tbaa !42
  %3 = load ptr, ptr %2, align 8, !tbaa !42
  %4 = getelementptr inbounds nuw %struct.Abc_Obj_t_, ptr %3, i32 0, i32 0
  %5 = load ptr, ptr %4, align 8, !tbaa !67
  %6 = getelementptr inbounds nuw %struct.Abc_Ntk_t_, ptr %5, i32 0, i32 5
  %7 = load ptr, ptr %6, align 8, !tbaa !27
  %8 = getelementptr inbounds nuw %struct.Vec_Ptr_t_, ptr %7, i32 0, i32 2
  %9 = load ptr, ptr %8, align 8, !tbaa !68
  %10 = load ptr, ptr %2, align 8, !tbaa !42
  %11 = getelementptr inbounds nuw %struct.Abc_Obj_t_, ptr %10, i32 0, i32 4
  %12 = getelementptr inbounds nuw %struct.Vec_Int_t_, ptr %11, i32 0, i32 2
  %13 = load ptr, ptr %12, align 8, !tbaa !69
  %14 = getelementptr inbounds i32, ptr %13, i64 1
  %15 = load i32, ptr %14, align 4, !tbaa !8
  %16 = sext i32 %15 to i64
  %17 = getelementptr inbounds ptr, ptr %9, i64 %16
  %18 = load ptr, ptr %17, align 8, !tbaa !70
  ret ptr %18
}

; Function Attrs: inlinehint nounwind uwtable
define internal ptr @Abc_ObjChild1(ptr noundef %0) #2 {
  %2 = alloca ptr, align 8
  store ptr %0, ptr %2, align 8, !tbaa !42
  %3 = load ptr, ptr %2, align 8, !tbaa !42
  %4 = call ptr @Abc_ObjFanin1(ptr noundef %3)
  %5 = load ptr, ptr %2, align 8, !tbaa !42
  %6 = call i32 @Abc_ObjFaninC1(ptr noundef %5)
  %7 = call ptr @Abc_ObjNotCond(ptr noundef %4, i32 noundef %6)
  ret ptr %7
}

; Function Attrs: inlinehint nounwind uwtable
define internal ptr @Abc_ObjFanin0(ptr noundef %0) #2 {
  %2 = alloca ptr, align 8
  store ptr %0, ptr %2, align 8, !tbaa !42
  %3 = load ptr, ptr %2, align 8, !tbaa !42
  %4 = getelementptr inbounds nuw %struct.Abc_Obj_t_, ptr %3, i32 0, i32 0
  %5 = load ptr, ptr %4, align 8, !tbaa !67
  %6 = getelementptr inbounds nuw %struct.Abc_Ntk_t_, ptr %5, i32 0, i32 5
  %7 = load ptr, ptr %6, align 8, !tbaa !27
  %8 = getelementptr inbounds nuw %struct.Vec_Ptr_t_, ptr %7, i32 0, i32 2
  %9 = load ptr, ptr %8, align 8, !tbaa !68
  %10 = load ptr, ptr %2, align 8, !tbaa !42
  %11 = getelementptr inbounds nuw %struct.Abc_Obj_t_, ptr %10, i32 0, i32 4
  %12 = getelementptr inbounds nuw %struct.Vec_Int_t_, ptr %11, i32 0, i32 2
  %13 = load ptr, ptr %12, align 8, !tbaa !69
  %14 = getelementptr inbounds i32, ptr %13, i64 0
  %15 = load i32, ptr %14, align 4, !tbaa !8
  %16 = sext i32 %15 to i64
  %17 = getelementptr inbounds ptr, ptr %9, i64 %16
  %18 = load ptr, ptr %17, align 8, !tbaa !70
  ret ptr %18
}

; Function Attrs: nounwind uwtable
define internal i32 @Abc_NtkRRUpdate(ptr noundef %0, ptr noundef %1, ptr noundef %2, ptr noundef %3) #0 {
  %5 = alloca i32, align 4
  %6 = alloca ptr, align 8
  %7 = alloca ptr, align 8
  %8 = alloca ptr, align 8
  %9 = alloca ptr, align 8
  %10 = alloca ptr, align 8
  %11 = alloca ptr, align 8
  %12 = alloca i32, align 4
  store ptr %0, ptr %6, align 8, !tbaa !3
  store ptr %1, ptr %7, align 8, !tbaa !42
  store ptr %2, ptr %8, align 8, !tbaa !42
  store ptr %3, ptr %9, align 8, !tbaa !42
  call void @llvm.lifetime.start.p0(i64 8, ptr %10) #10
  store ptr null, ptr %10, align 8, !tbaa !42
  call void @llvm.lifetime.start.p0(i64 8, ptr %11) #10
  store ptr null, ptr %11, align 8, !tbaa !42
  %13 = load ptr, ptr %8, align 8, !tbaa !42
  %14 = load ptr, ptr %7, align 8, !tbaa !42
  %15 = call ptr @Abc_ObjFanin0(ptr noundef %14)
  %16 = icmp eq ptr %13, %15
  br i1 %16, label %17, label %20

17:                                               ; preds = %4
  %18 = load ptr, ptr %7, align 8, !tbaa !42
  %19 = call ptr @Abc_ObjChild1(ptr noundef %18)
  store ptr %19, ptr %10, align 8, !tbaa !42
  br label %30

20:                                               ; preds = %4
  %21 = load ptr, ptr %8, align 8, !tbaa !42
  %22 = load ptr, ptr %7, align 8, !tbaa !42
  %23 = call ptr @Abc_ObjFanin1(ptr noundef %22)
  %24 = icmp eq ptr %21, %23
  br i1 %24, label %25, label %28

25:                                               ; preds = %20
  %26 = load ptr, ptr %7, align 8, !tbaa !42
  %27 = call ptr @Abc_ObjChild0(ptr noundef %26)
  store ptr %27, ptr %10, align 8, !tbaa !42
  br label %29

28:                                               ; preds = %20
  br label %29

29:                                               ; preds = %28, %25
  br label %30

30:                                               ; preds = %29, %17
  %31 = load ptr, ptr %9, align 8, !tbaa !42
  %32 = icmp eq ptr %31, null
  br i1 %32, label %33, label %40

33:                                               ; preds = %30
  %34 = load ptr, ptr %6, align 8, !tbaa !3
  %35 = getelementptr inbounds nuw %struct.Abc_Ntk_t_, ptr %34, i32 0, i32 30
  %36 = load ptr, ptr %35, align 8, !tbaa !86
  %37 = load ptr, ptr %7, align 8, !tbaa !42
  %38 = load ptr, ptr %10, align 8, !tbaa !42
  %39 = call i32 @Abc_AigReplace(ptr noundef %36, ptr noundef %37, ptr noundef %38, i32 noundef 1)
  store i32 %39, ptr %5, align 4
  store i32 1, ptr %12, align 4
  br label %81

40:                                               ; preds = %30
  %41 = load ptr, ptr %7, align 8, !tbaa !42
  %42 = load ptr, ptr %9, align 8, !tbaa !42
  %43 = call ptr @Abc_ObjFanin0(ptr noundef %42)
  %44 = icmp eq ptr %41, %43
  br i1 %44, label %45, label %56

45:                                               ; preds = %40
  %46 = load ptr, ptr %6, align 8, !tbaa !3
  %47 = getelementptr inbounds nuw %struct.Abc_Ntk_t_, ptr %46, i32 0, i32 30
  %48 = load ptr, ptr %47, align 8, !tbaa !86
  %49 = load ptr, ptr %10, align 8, !tbaa !42
  %50 = load ptr, ptr %9, align 8, !tbaa !42
  %51 = call i32 @Abc_ObjFaninC0(ptr noundef %50)
  %52 = call ptr @Abc_ObjNotCond(ptr noundef %49, i32 noundef %51)
  %53 = load ptr, ptr %9, align 8, !tbaa !42
  %54 = call ptr @Abc_ObjChild1(ptr noundef %53)
  %55 = call ptr @Abc_AigAnd(ptr noundef %48, ptr noundef %52, ptr noundef %54)
  store ptr %55, ptr %11, align 8, !tbaa !42
  br label %74

56:                                               ; preds = %40
  %57 = load ptr, ptr %7, align 8, !tbaa !42
  %58 = load ptr, ptr %9, align 8, !tbaa !42
  %59 = call ptr @Abc_ObjFanin1(ptr noundef %58)
  %60 = icmp eq ptr %57, %59
  br i1 %60, label %61, label %72

61:                                               ; preds = %56
  %62 = load ptr, ptr %6, align 8, !tbaa !3
  %63 = getelementptr inbounds nuw %struct.Abc_Ntk_t_, ptr %62, i32 0, i32 30
  %64 = load ptr, ptr %63, align 8, !tbaa !86
  %65 = load ptr, ptr %10, align 8, !tbaa !42
  %66 = load ptr, ptr %9, align 8, !tbaa !42
  %67 = call i32 @Abc_ObjFaninC1(ptr noundef %66)
  %68 = call ptr @Abc_ObjNotCond(ptr noundef %65, i32 noundef %67)
  %69 = load ptr, ptr %9, align 8, !tbaa !42
  %70 = call ptr @Abc_ObjChild0(ptr noundef %69)
  %71 = call ptr @Abc_AigAnd(ptr noundef %64, ptr noundef %68, ptr noundef %70)
  store ptr %71, ptr %11, align 8, !tbaa !42
  br label %73

72:                                               ; preds = %56
  br label %73

73:                                               ; preds = %72, %61
  br label %74

74:                                               ; preds = %73, %45
  %75 = load ptr, ptr %6, align 8, !tbaa !3
  %76 = getelementptr inbounds nuw %struct.Abc_Ntk_t_, ptr %75, i32 0, i32 30
  %77 = load ptr, ptr %76, align 8, !tbaa !86
  %78 = load ptr, ptr %9, align 8, !tbaa !42
  %79 = load ptr, ptr %11, align 8, !tbaa !42
  %80 = call i32 @Abc_AigReplace(ptr noundef %77, ptr noundef %78, ptr noundef %79, i32 noundef 1)
  store i32 1, ptr %5, align 4
  store i32 1, ptr %12, align 4
  br label %81

81:                                               ; preds = %74, %33
  call void @llvm.lifetime.end.p0(i64 8, ptr %11) #10
  call void @llvm.lifetime.end.p0(i64 8, ptr %10) #10
  %82 = load i32, ptr %5, align 4
  ret i32 %82
}