; Function Attrs: nounwind uwtable
define internal fastcc void @Abc_NtkRRUpdate(ptr noundef readonly captures(none) %0, ptr noundef %1, ptr noundef readnone %2, ptr noundef %3) unnamed_addr #0 {
  %.val = load ptr, ptr %1, align 8, !tbaa !52
  %5 = getelementptr i8, ptr %1, i64 32
  %.val30 = load ptr, ptr %5, align 8, !tbaa !54
  %6 = getelementptr i8, ptr %.val, i64 32
  %.val.val = load ptr, ptr %6, align 8, !tbaa !32
  %.val30.val = load i32, ptr %.val30, align 4, !tbaa !29
  %7 = getelementptr i8, ptr %.val.val, i64 8
  %.val.val.val = load ptr, ptr %7, align 8, !tbaa !14
  %8 = sext i32 %.val30.val to i64
  %9 = getelementptr inbounds ptr, ptr %.val.val.val, i64 %8
  %10 = load ptr, ptr %9, align 8, !tbaa !49
  %11 = icmp eq ptr %2, %10
  %12 = getelementptr i8, ptr %.val30, i64 4
  %.val2.val.i = load i32, ptr %12, align 4, !tbaa !29
  %13 = sext i32 %.val2.val.i to i64
  %14 = getelementptr inbounds ptr, ptr %.val.val.val, i64 %13
  %15 = load ptr, ptr %14, align 8, !tbaa !49
  br i1 %11, label %.sink.split, label %16

16:                                               ; preds = %4
  %17 = icmp eq ptr %2, %15
  br i1 %17, label %.sink.split, label %25

.sink.split:                                      ; preds = %16, %4
  %.sink = phi i32 [ 11, %4 ], [ 10, %16 ]
  %.sink59 = phi ptr [ %15, %4 ], [ %10, %16 ]
  %18 = getelementptr i8, ptr %1, i64 20
  %.val3.i44 = load i32, ptr %18, align 4
  %19 = lshr i32 %.val3.i44, %.sink
  %20 = and i32 %19, 1
  %21 = ptrtoint ptr %.sink59 to i64
  %22 = zext nneg i32 %20 to i64
  %23 = xor i64 %22, %21
  %24 = inttoptr i64 %23 to ptr
  br label %25

25:                                               ; preds = %.sink.split, %16
  %.025 = phi ptr [ null, %16 ], [ %24, %.sink.split ]
  %26 = icmp eq ptr %3, null
  br i1 %26, label %27, label %31

27:                                               ; preds = %25
  %28 = getelementptr inbounds nuw i8, ptr %0, i64 256
  %29 = load ptr, ptr %28, align 8, !tbaa !104
  %30 = tail call i32 @Abc_AigReplace(ptr noundef %29, ptr noundef nonnull %1, ptr noundef %.025, i32 noundef 1) #16
  br label %87

31:                                               ; preds = %25
  %.val31 = load ptr, ptr %3, align 8, !tbaa !52
  %32 = getelementptr i8, ptr %3, i64 32
  %.val32 = load ptr, ptr %32, align 8, !tbaa !54
  %33 = getelementptr i8, ptr %.val31, i64 32
  %.val31.val = load ptr, ptr %33, align 8, !tbaa !32
  %.val32.val = load i32, ptr %.val32, align 4, !tbaa !29
  %34 = getelementptr i8, ptr %.val31.val, i64 8
  %.val31.val.val = load ptr, ptr %34, align 8, !tbaa !14
  %35 = sext i32 %.val32.val to i64
  %36 = getelementptr inbounds ptr, ptr %.val31.val.val, i64 %35
  %37 = load ptr, ptr %36, align 8, !tbaa !49
  %38 = icmp eq ptr %1, %37
  br i1 %38, label %39, label %60

39:                                               ; preds = %31
  %40 = getelementptr inbounds nuw i8, ptr %0, i64 256
  %41 = load ptr, ptr %40, align 8, !tbaa !104
  %42 = getelementptr i8, ptr %3, i64 20
  %.val37 = load i32, ptr %42, align 4
  %43 = lshr i32 %.val37, 10
  %44 = and i32 %43, 1
  %45 = ptrtoint ptr %.025 to i64
  %46 = zext nneg i32 %44 to i64
  %47 = xor i64 %46, %45
  %48 = inttoptr i64 %47 to ptr
  %49 = getelementptr i8, ptr %.val32, i64 4
  %.val2.val.i48 = load i32, ptr %49, align 4, !tbaa !29
  %50 = sext i32 %.val2.val.i48 to i64
  %51 = getelementptr inbounds ptr, ptr %.val31.val.val, i64 %50
  %52 = load ptr, ptr %51, align 8, !tbaa !49
  %53 = lshr i32 %.val37, 11
  %54 = and i32 %53, 1
  %55 = ptrtoint ptr %52 to i64
  %56 = zext nneg i32 %54 to i64
  %57 = xor i64 %56, %55
  %58 = inttoptr i64 %57 to ptr
  %59 = tail call ptr @Abc_AigAnd(ptr noundef %41, ptr noundef %48, ptr noundef %58) #16
  br label %83

60:                                               ; preds = %31
  %61 = getelementptr i8, ptr %.val32, i64 4
  %.val36.val = load i32, ptr %61, align 4, !tbaa !29
  %62 = sext i32 %.val36.val to i64
  %63 = getelementptr inbounds ptr, ptr %.val31.val.val, i64 %62
  %64 = load ptr, ptr %63, align 8, !tbaa !49
  %65 = icmp eq ptr %1, %64
  br i1 %65, label %66, label %83

66:                                               ; preds = %60
  %67 = getelementptr inbounds nuw i8, ptr %0, i64 256
  %68 = load ptr, ptr %67, align 8, !tbaa !104
  %69 = getelementptr i8, ptr %3, i64 20
  %.val38 = load i32, ptr %69, align 4
  %70 = lshr i32 %.val38, 11
  %71 = and i32 %70, 1
  %72 = ptrtoint ptr %.025 to i64
  %73 = zext nneg i32 %71 to i64
  %74 = xor i64 %73, %72
  %75 = inttoptr i64 %74 to ptr
  %76 = lshr i32 %.val38, 10
  %77 = and i32 %76, 1
  %78 = ptrtoint ptr %37 to i64
  %79 = zext nneg i32 %77 to i64
  %80 = xor i64 %79, %78
  %81 = inttoptr i64 %80 to ptr
  %82 = tail call ptr @Abc_AigAnd(ptr noundef %68, ptr noundef %75, ptr noundef %81) #16
  br label %83

83:                                               ; preds = %66, %60, %39
  %.0 = phi ptr [ %59, %39 ], [ %82, %66 ], [ null, %60 ]
  %84 = getelementptr inbounds nuw i8, ptr %0, i64 256
  %85 = load ptr, ptr %84, align 8, !tbaa !104
  %86 = tail call i32 @Abc_AigReplace(ptr noundef %85, ptr noundef nonnull %3, ptr noundef %.0, i32 noundef 1) #16
  br label %87

87:                                               ; preds = %83, %27
  ret void
}